(((dp0
(I0
I1
tp1
(dp2
I0
I1
sI1
I1
sI2
I1
sI3
I1
ss(I1
I2
tp3
(dp4
I0
I1
sI1
I1
sI2
I1
sI3
I1
ss(I2
I1
tp5
(dp6
I0
I1
sI1
I1
sI2
I1
sI3
I1
ss(I2
I0
tp7
(dp8
I0
I1
sI1
I1
sI2
I1
sI3
I1
ss(I1
I0
tp9
(dp10
I0
I1
sI1
I1
sI2
I1
sI3
I1
ss(I0
I2
tp11
(dp12
I0
I1
sI1
I1
sI2
I1
sI3
I1
ss(dp13
(I0
I1
tp14
cfractions
Fraction
p15
(S'1/2'
p16
tp17
Rp18
s(I1
I2
tp19
g15
(S'1/4'
p20
tp21
Rp22
s(I2
I1
tp23
g15
(S'1/4'
p24
tp25
Rp26
s(I2
I0
tp27
g15
(S'1/4'
p28
tp29
Rp30
s(I1
I0
tp31
g15
(S'1/2'
p32
tp33
Rp34
s(I0
I2
tp35
g15
(S'1/4'
p36
tp37
Rp38
s(dp39
(I0
I1
tp40
c__builtin__
set
p41
((lp42
I2
aI3
atp43
Rp44
s(I1
I2
tp45
g41
((lp46
I0
aI1
atp47
Rp48
s(I2
I1
tp49
g41
((lp50
I2
aI3
atp51
Rp52
s(I2
I0
tp53
g41
((lp54
I0
aI1
atp55
Rp56
s(I1
I0
tp57
g41
((lp58
I0
aI1
atp59
Rp60
s(I0
I2
tp61
g41
((lp62
I2
aI3
atp63
Rp64
s(dp65
(I0
I1
tp66
g41
((lp67
I0
aI1
atp68
Rp69
s(I1
I2
tp70
g41
((lp71
I2
aI3
atp72
Rp73
s(I2
I1
tp74
g41
((lp75
I0
aI1
atp76
Rp77
s(I2
I0
tp78
g41
((lp79
I2
aI3
atp80
Rp81
s(I1
I0
tp82
g41
((lp83
I2
aI3
atp84
Rp85
s(I0
I2
tp86
g41
((lp87
I0
aI1
atp88
Rp89
stp90
(dp91
(I0
I1
tp92
(dp93
(S'e3'
p94
S'c0'
p95
tp96
I0
s(S'e3'
p97
S'c1'
p98
tp99
I1
s(S'c1'
p100
S'e0'
p101
tp102
I1
s(S'c1'
p103
S'e1'
p104
tp105
I0
s(S'e2'
p106
S'c1'
p107
tp108
I0
s(S'e2'
p109
S'c0'
p110
tp111
I1
s(S'c0'
p112
S'e1'
p113
tp114
I1
s(S'c0'
p115
S'e0'
p116
tp117
I0
ss(I1
I2
tp118
(dp119
(S'c0'
p120
S'e3'
p121
tp122
I0
s(S'c1'
p123
S'e2'
p124
tp125
I0
s(S'c1'
p126
S'e3'
p127
tp128
I1
s(S'e1'
p129
S'c0'
p130
tp131
I1
s(S'c0'
p132
S'e2'
p133
tp134
I1
s(S'e1'
p135
S'c1'
p136
tp137
I0
s(S'e0'
p138
S'c1'
p139
tp140
I1
s(S'e0'
p141
S'c0'
p142
tp143
I0
ss(I2
I1
tp144
(dp145
(S'e3'
p146
S'c0'
p147
tp148
I0
s(S'e3'
p149
S'c1'
p150
tp151
I1
s(S'c1'
p152
S'e0'
p153
tp154
I1
s(S'c1'
p155
S'e1'
p156
tp157
I0
s(S'e2'
p158
S'c1'
p159
tp160
I0
s(S'e2'
p161
S'c0'
p162
tp163
I1
s(S'c0'
p164
S'e1'
p165
tp166
I1
s(S'c0'
p167
S'e0'
p168
tp169
I0
ss(I2
I0
tp170
(dp171
(S'c0'
p172
S'e3'
p173
tp174
I1
s(S'c1'
p175
S'e2'
p176
tp177
I1
s(S'c1'
p178
S'e3'
p179
tp180
I0
s(S'e1'
p181
S'c0'
p182
tp183
I1
s(S'c0'
p184
S'e2'
p185
tp186
I0
s(S'e1'
p187
S'c1'
p188
tp189
I0
s(S'e0'
p190
S'c1'
p191
tp192
I1
s(S'e0'
p193
S'c0'
p194
tp195
I0
ss(I1
I0
tp196
(dp197
(S'c0'
p198
S'e3'
p199
tp200
I0
s(S'c1'
p201
S'e2'
p202
tp203
I0
s(S'c1'
p204
S'e3'
p205
tp206
I1
s(S'e1'
p207
S'c0'
p208
tp209
I1
s(S'c0'
p210
S'e2'
p211
tp212
I1
s(S'e1'
p213
S'c1'
p214
tp215
I0
s(S'e0'
p216
S'c1'
p217
tp218
I1
s(S'e0'
p219
S'c0'
p220
tp221
I0
ss(I0
I2
tp222
(dp223
(S'e3'
p224
S'c0'
p225
tp226
I1
s(S'e3'
p227
S'c1'
p228
tp229
I0
s(S'c1'
p230
S'e0'
p231
tp232
I1
s(S'c1'
p233
S'e1'
p234
tp235
I0
s(S'e2'
p236
S'c1'
p237
tp238
I1
s(S'e2'
p239
S'c0'
p240
tp241
I0
s(S'c0'
p242
S'e1'
p243
tp244
I1
s(S'c0'
p245
S'e0'
p246
tp247
I0
ss(dp248
(I0
I1
tp249
(dp250
S'c1'
p251
(dp252
S'e0'
p253
I1
ssS'c0'
p254
(dp255
S'e1'
p256
I1
ssS'e1'
p257
(dp258
S't1_0'
p259
I1
ssS'e0'
p260
(dp261
S't1_0'
p262
I1
ssS'e3'
p263
(dp264
S'c1'
p265
I1
sS'c0'
p266
I0
ssS'e2'
p267
(dp268
S'c1'
p269
I0
sS'c0'
p270
I1
sss(I1
I2
tp271
(dp272
S'c1'
p273
(dp274
S'e3'
p275
I1
ssS'c0'
p276
(dp277
S'e2'
p278
I1
ssS'e1'
p279
(dp280
S'c0'
p281
I1
sS't2_0'
p282
I1
sS'c1'
p283
I0
ssS'e0'
p284
(dp285
S'c0'
p286
I0
sS't2_0'
p287
I1
sS'c1'
p288
I1
ssS'e3'
p289
(dp290
S't2_0'
p291
I1
ssS'e2'
p292
(dp293
S't2_0'
p294
I1
sss(I2
I1
tp295
(dp296
S'c1'
p297
(dp298
S'e0'
p299
I1
ssS'c0'
p300
(dp301
S'e1'
p302
I1
ssS'e1'
p303
(dp304
S't1_0'
p305
I1
ssS'e0'
p306
(dp307
S't1_0'
p308
I1
ssS'e3'
p309
(dp310
S'c1'
p311
I1
sS'c0'
p312
I0
ssS'e2'
p313
(dp314
S'c1'
p315
I0
sS'c0'
p316
I1
sss(I2
I0
tp317
(dp318
S'c1'
p319
(dp320
S'e2'
p321
I1
ssS'c0'
p322
(dp323
S'e3'
p324
I1
ssS'e1'
p325
(dp326
S'c1'
p327
I0
sS'c0'
p328
I1
ssS'e0'
p329
(dp330
S'c1'
p331
I1
sS'c0'
p332
I0
ssS'e3'
p333
(dp334
S't0_0'
p335
I1
ssS'e2'
p336
(dp337
S't0_0'
p338
I1
sss(I1
I0
tp339
(dp340
S'c1'
p341
(dp342
S'e3'
p343
I1
ssS'c0'
p344
(dp345
S'e2'
p346
I1
ssS'e1'
p347
(dp348
S'c1'
p349
I0
sS'c0'
p350
I1
ssS'e0'
p351
(dp352
S'c1'
p353
I1
sS'c0'
p354
I0
ssS'e3'
p355
(dp356
S't0_0'
p357
I1
ssS'e2'
p358
(dp359
S't0_0'
p360
I1
sss(I0
I2
tp361
(dp362
S'c1'
p363
(dp364
S'e0'
p365
I1
ssS'c0'
p366
(dp367
S'e1'
p368
I1
ssS'e1'
p369
(dp370
S't2_0'
p371
I1
ssS'e0'
p372
(dp373
S't2_0'
p374
I1
ssS'e3'
p375
(dp376
S'c0'
p377
I1
sS't2_0'
p378
I1
sS'c1'
p379
I0
ssS'e2'
p380
(dp381
S'c0'
p382
I0
sS't2_0'
p383
I1
sS'c1'
p384
I1
ssstp385
.